; ModuleID = '19/877.c'
source_filename = "19/877.c"
target datalayout = "e-m:e-p270:32:32-p271:32:32-p272:64:64-i64:64-f80:128-n8:16:32:64-S128"
target triple = "x86_64-pc-linux-gnu"

@.str = private unnamed_addr constant [3 x i8] c"%s\00", align 1

; Function Attrs: noinline nounwind uwtable
define dso_local i32 @main() #0 {
  %1 = alloca i32, align 4
  %2 = alloca i32, align 4
  %3 = alloca i32, align 4
  %4 = alloca i32, align 4
  %5 = alloca i32, align 4
  %6 = alloca i32, align 4
  %7 = alloca i32, align 4
  %8 = alloca i32, align 4
  %9 = alloca i32, align 4
  %10 = alloca i32, align 4
  %11 = alloca [100 x i8], align 16
  %12 = alloca [100 x i8], align 16
  %13 = alloca [100 x i8], align 16
  %14 = alloca [100 x [100 x i8]], align 16
  store i32 0, i32* %1, align 4
  store i32 0, i32* %5, align 4
  %15 = bitcast [100 x i8]* %11 to i8*
  call void @llvm.memset.p0i8.i64(i8* align 16 %15, i8 0, i64 100, i1 false)
  %16 = bitcast [100 x [100 x i8]]* %14 to i8*
  call void @llvm.memset.p0i8.i64(i8* align 16 %16, i8 0, i64 10000, i1 false)
  %17 = getelementptr inbounds [100 x i8], [100 x i8]* %11, i64 0, i64 0
  %18 = call i32 (i8*, ...) bitcast (i32 (...)* @gets to i32 (i8*, ...)*)(i8* %17)
  %19 = getelementptr inbounds [100 x i8], [100 x i8]* %12, i64 0, i64 0
  %20 = call i32 (i8*, ...) bitcast (i32 (...)* @gets to i32 (i8*, ...)*)(i8* %19)
  %21 = getelementptr inbounds [100 x i8], [100 x i8]* %13, i64 0, i64 0
  %22 = call i32 (i8*, ...) bitcast (i32 (...)* @gets to i32 (i8*, ...)*)(i8* %21)
  %23 = getelementptr inbounds [100 x i8], [100 x i8]* %11, i64 0, i64 0
  %24 = call i64 @strlen(i8* %23) #5
  %25 = trunc i64 %24 to i32
  store i32 %25, i32* %7, align 4
  %26 = getelementptr inbounds [100 x i8], [100 x i8]* %12, i64 0, i64 0
  %27 = call i64 @strlen(i8* %26) #5
  %28 = trunc i64 %27 to i32
  store i32 %28, i32* %8, align 4
  %29 = getelementptr inbounds [100 x i8], [100 x i8]* %13, i64 0, i64 0
  %30 = call i64 @strlen(i8* %29) #5
  %31 = trunc i64 %30 to i32
  store i32 %31, i32* %9, align 4
  store i32 0, i32* %2, align 4
  br label %32

32:                                               ; preds = %78, %0
  %33 = load i32, i32* %5, align 4
  %34 = load i32, i32* %7, align 4
  %35 = icmp slt i32 %33, %34
  br i1 %35, label %36, label %81

36:                                               ; preds = %32
  store i32 0, i32* %3, align 4
  br label %37

37:                                               ; preds = %70, %36
  %38 = load i32, i32* %5, align 4
  %39 = load i32, i32* %3, align 4
  %40 = add nsw i32 %38, %39
  %41 = sext i32 %40 to i64
  %42 = getelementptr inbounds [100 x i8], [100 x i8]* %11, i64 0, i64 %41
  %43 = load i8, i8* %42, align 1
  %44 = load i32, i32* %2, align 4
  %45 = sext i32 %44 to i64
  %46 = getelementptr inbounds [100 x [100 x i8]], [100 x [100 x i8]]* %14, i64 0, i64 %45
  %47 = load i32, i32* %3, align 4
  %48 = sext i32 %47 to i64
  %49 = getelementptr inbounds [100 x i8], [100 x i8]* %46, i64 0, i64 %48
  store i8 %43, i8* %49, align 1
  %50 = load i32, i32* %5, align 4
  %51 = load i32, i32* %3, align 4
  %52 = add nsw i32 %50, %51
  %53 = sext i32 %52 to i64
  %54 = getelementptr inbounds [100 x i8], [100 x i8]* %11, i64 0, i64 %53
  %55 = load i8, i8* %54, align 1
  %56 = sext i8 %55 to i32
  %57 = icmp eq i32 %56, 32
  br i1 %57, label %68, label %58

58:                                               ; preds = %37
  %59 = load i32, i32* %5, align 4
  %60 = load i32, i32* %3, align 4
  %61 = add nsw i32 %59, %60
  %62 = sext i32 %61 to i64
  %63 = getelementptr inbounds [100 x i8], [100 x i8]* %11, i64 0, i64 %62
  %64 = load i8, i8* %63, align 1
  %65 = sext i8 %64 to i64
  %66 = inttoptr i64 %65 to i8*
  %67 = icmp eq i8* %66, null
  br i1 %67, label %68, label %69

68:                                               ; preds = %58, %37
  br label %73

69:                                               ; preds = %58
  br label %70

70:                                               ; preds = %69
  %71 = load i32, i32* %3, align 4
  %72 = add nsw i32 %71, 1
  store i32 %72, i32* %3, align 4
  br label %37

73:                                               ; preds = %68
  %74 = load i32, i32* %3, align 4
  %75 = add nsw i32 %74, 1
  %76 = load i32, i32* %5, align 4
  %77 = add nsw i32 %76, %75
  store i32 %77, i32* %5, align 4
  br label %78

78:                                               ; preds = %73
  %79 = load i32, i32* %2, align 4
  %80 = add nsw i32 %79, 1
  store i32 %80, i32* %2, align 4
  br label %32

81:                                               ; preds = %32
  store i32 0, i32* %4, align 4
  br label %82

82:                                               ; preds = %150, %81
  %83 = load i32, i32* %4, align 4
  %84 = load i32, i32* %2, align 4
  %85 = icmp sle i32 %83, %84
  br i1 %85, label %86, label %153

86:                                               ; preds = %82
  store i32 0, i32* %10, align 4
  br label %87

87:                                               ; preds = %108, %86
  %88 = load i32, i32* %10, align 4
  %89 = load i32, i32* %8, align 4
  %90 = icmp slt i32 %88, %89
  br i1 %90, label %91, label %111

91:                                               ; preds = %87
  %92 = load i32, i32* %4, align 4
  %93 = sext i32 %92 to i64
  %94 = getelementptr inbounds [100 x [100 x i8]], [100 x [100 x i8]]* %14, i64 0, i64 %93
  %95 = load i32, i32* %10, align 4
  %96 = sext i32 %95 to i64
  %97 = getelementptr inbounds [100 x i8], [100 x i8]* %94, i64 0, i64 %96
  %98 = load i8, i8* %97, align 1
  %99 = sext i8 %98 to i32
  %100 = load i32, i32* %10, align 4
  %101 = sext i32 %100 to i64
  %102 = getelementptr inbounds [100 x i8], [100 x i8]* %12, i64 0, i64 %101
  %103 = load i8, i8* %102, align 1
  %104 = sext i8 %103 to i32
  %105 = icmp ne i32 %99, %104
  br i1 %105, label %106, label %107

106:                                              ; preds = %91
  br label %111

107:                                              ; preds = %91
  br label %108

108:                                              ; preds = %107
  %109 = load i32, i32* %10, align 4
  %110 = add nsw i32 %109, 1
  store i32 %110, i32* %10, align 4
  br label %87

111:                                              ; preds = %106, %87
  %112 = load i32, i32* %10, align 4
  %113 = load i32, i32* %8, align 4
  %114 = icmp eq i32 %112, %113
  br i1 %114, label %115, label %149

115:                                              ; preds = %111
  store i32 0, i32* %10, align 4
  br label %116

116:                                              ; preds = %127, %115
  %117 = load i32, i32* %10, align 4
  %118 = load i32, i32* %8, align 4
  %119 = icmp sle i32 %117, %118
  br i1 %119, label %120, label %130

120:                                              ; preds = %116
  %121 = load i32, i32* %4, align 4
  %122 = sext i32 %121 to i64
  %123 = getelementptr inbounds [100 x [100 x i8]], [100 x [100 x i8]]* %14, i64 0, i64 %122
  %124 = load i32, i32* %10, align 4
  %125 = sext i32 %124 to i64
  %126 = getelementptr inbounds [100 x i8], [100 x i8]* %123, i64 0, i64 %125
  store i8 0, i8* %126, align 1
  br label %127

127:                                              ; preds = %120
  %128 = load i32, i32* %10, align 4
  %129 = add nsw i32 %128, 1
  store i32 %129, i32* %10, align 4
  br label %116

130:                                              ; preds = %116
  %131 = load i32, i32* %4, align 4
  %132 = sext i32 %131 to i64
  %133 = getelementptr inbounds [100 x [100 x i8]], [100 x [100 x i8]]* %14, i64 0, i64 %132
  %134 = getelementptr inbounds [100 x i8], [100 x i8]* %133, i64 0, i64 0
  %135 = getelementptr inbounds [100 x i8], [100 x i8]* %13, i64 0, i64 0
  %136 = call i8* @strcpy(i8* %134, i8* %135) #6
  %137 = load i32, i32* %4, align 4
  %138 = load i32, i32* %2, align 4
  %139 = sub nsw i32 %138, 1
  %140 = icmp ne i32 %137, %139
  br i1 %140, label %141, label %148

141:                                              ; preds = %130
  %142 = load i32, i32* %4, align 4
  %143 = sext i32 %142 to i64
  %144 = getelementptr inbounds [100 x [100 x i8]], [100 x [100 x i8]]* %14, i64 0, i64 %143
  %145 = load i32, i32* %9, align 4
  %146 = sext i32 %145 to i64
  %147 = getelementptr inbounds [100 x i8], [100 x i8]* %144, i64 0, i64 %146
  store i8 32, i8* %147, align 1
  br label %148

148:                                              ; preds = %141, %130
  br label %149

149:                                              ; preds = %148, %111
  br label %150

150:                                              ; preds = %149
  %151 = load i32, i32* %4, align 4
  %152 = add nsw i32 %151, 1
  store i32 %152, i32* %4, align 4
  br label %82

153:                                              ; preds = %82
  store i32 0, i32* %4, align 4
  br label %154

154:                                              ; preds = %164, %153
  %155 = load i32, i32* %4, align 4
  %156 = load i32, i32* %2, align 4
  %157 = icmp sle i32 %155, %156
  br i1 %157, label %158, label %167

158:                                              ; preds = %154
  %159 = load i32, i32* %4, align 4
  %160 = sext i32 %159 to i64
  %161 = getelementptr inbounds [100 x [100 x i8]], [100 x [100 x i8]]* %14, i64 0, i64 %160
  %162 = getelementptr inbounds [100 x i8], [100 x i8]* %161, i64 0, i64 0
  %163 = call i32 (i8*, ...) @printf(i8* getelementptr inbounds ([3 x i8], [3 x i8]* @.str, i64 0, i64 0), i8* %162)
  br label %164

164:                                              ; preds = %158
  %165 = load i32, i32* %4, align 4
  %166 = add nsw i32 %165, 1
  store i32 %166, i32* %4, align 4
  br label %154

167:                                              ; preds = %154
  %168 = load i32, i32* %1, align 4
  ret i32 %168
}

; Function Attrs: argmemonly nounwind willreturn
declare void @llvm.memset.p0i8.i64(i8* nocapture writeonly, i8, i64, i1 immarg) #1

declare dso_local i32 @gets(...) #2

; Function Attrs: nounwind readonly
declare dso_local i64 @strlen(i8*) #3

; Function Attrs: nounwind
declare dso_local i8* @strcpy(i8*, i8*) #4

declare dso_local i32 @printf(i8*, ...) #2


!llvm.module.flags = !{!0}
!llvm.ident = !{!1}

!0 = !{i32 1, !"wchar_size", i32 4}
!1 = !{!"clang version 10.0.0-4ubuntu1 "}
